target datalayout = "e-m:e-p270:32:32-p271:32:32-p272:64:64-i64:64-i128:128-f80:128-n8:16:32:64-S128"
target triple = "x86_64-pc-linux-gnu"

%"class.std::__cxx11::basic_string" = type { %"struct.std::__cxx11::basic_string<char>::_Alloc_hider", i64, %union.anon }
%"struct.std::__cxx11::basic_string<char>::_Alloc_hider" = type { ptr }
%union.anon = type { i64, [8 x i8] }
%class.cmListFileBacktrace = type { %class.cmConstStack }
%class.cmConstStack = type { %"class.std::shared_ptr" }
%"class.std::shared_ptr" = type { %"class.std::__shared_ptr" }
%"class.std::__shared_ptr" = type { ptr, %"class.std::__shared_count" }
%"class.std::__shared_count" = type { ptr }
%class.cmInstallCxxModuleBmiGenerator = type <{ %class.cmInstallGenerator, %"class.std::__cxx11::basic_string", ptr, ptr, %"class.std::__cxx11::basic_string", i8, [7 x i8] }>
%class.cmInstallGenerator = type { %class.cmScriptGenerator.base, %"class.std::__cxx11::basic_string", %"class.std::__cxx11::basic_string", i32, i8, i8, %class.cmListFileBacktrace }
%class.cmScriptGenerator.base = type <{ ptr, %"class.std::__cxx11::basic_string", %"class.std::vector", %"class.std::__cxx11::basic_string", ptr, i8 }>
%"class.std::vector" = type { %"struct.std::_Vector_base" }
%"struct.std::_Vector_base" = type { %"struct.std::_Vector_base<std::__cxx11::basic_string<char>, std::allocator<std::__cxx11::basic_string<char>>>::_Vector_impl" }
%"struct.std::_Vector_base<std::__cxx11::basic_string<char>, std::allocator<std::__cxx11::basic_string<char>>>::_Vector_impl" = type { %"struct.std::_Vector_base<std::__cxx11::basic_string<char>, std::allocator<std::__cxx11::basic_string<char>>>::_Vector_impl_data" }
%"struct.std::_Vector_base<std::__cxx11::basic_string<char>, std::allocator<std::__cxx11::basic_string<char>>>::_Vector_impl_data" = type { ptr, ptr, ptr }
%class.cmLocalGenerator = type { %class.cmOutputConverter.base, ptr, %class.cmListFileBacktrace, ptr, %"class.std::map", i64, %"class.std::set", %"class.std::vector", %"class.std::unordered_map", %"class.std::vector.15", %"class.std::set.20", %"class.std::unordered_map", %"class.std::vector.15", %"class.std::map", %"class.std::map", %"class.std::map", %"class.std::__cxx11::basic_string", %"class.std::__cxx11::basic_string", %"class.std::unordered_map.28", i8, i64, i8, %"class.std::unordered_map.42" }
%class.cmOutputConverter.base = type <{ ptr, %class.cmStateSnapshot, i8, [7 x i8], %"class.std::__cxx11::basic_string", %"class.std::__cxx11::basic_string", i32 }>
%class.cmStateSnapshot = type { ptr, %"class.cmLinkedTree<cmStateDetail::SnapshotDataType>::iterator" }
%"class.cmLinkedTree<cmStateDetail::SnapshotDataType>::iterator" = type { ptr, i64 }
%"class.std::set" = type { %"class.std::_Rb_tree.6" }
%"class.std::_Rb_tree.6" = type { %"struct.std::_Rb_tree<std::__cxx11::basic_string<char>, std::__cxx11::basic_string<char>, std::_Identity<std::__cxx11::basic_string<char>>, std::less<std::__cxx11::basic_string<char>>>::_Rb_tree_impl" }
%"struct.std::_Rb_tree<std::__cxx11::basic_string<char>, std::__cxx11::basic_string<char>, std::_Identity<std::__cxx11::basic_string<char>>, std::less<std::__cxx11::basic_string<char>>>::_Rb_tree_impl" = type { %"struct.std::_Rb_tree_key_compare", %"struct.std::_Rb_tree_header" }
%"struct.std::_Rb_tree_key_compare" = type { %"struct.std::less" }
%"struct.std::less" = type { i8 }
%"struct.std::_Rb_tree_header" = type { %"struct.std::_Rb_tree_node_base", i64 }
%"struct.std::_Rb_tree_node_base" = type { i32, ptr, ptr, ptr }
%"class.std::set.20" = type { %"class.std::_Rb_tree.21" }
%"class.std::_Rb_tree.21" = type { %"struct.std::_Rb_tree<const cmGeneratorTarget *, const cmGeneratorTarget *, std::_Identity<const cmGeneratorTarget *>, std::less<const cmGeneratorTarget *>>::_Rb_tree_impl" }
%"struct.std::_Rb_tree<const cmGeneratorTarget *, const cmGeneratorTarget *, std::_Identity<const cmGeneratorTarget *>, std::less<const cmGeneratorTarget *>>::_Rb_tree_impl" = type { %"struct.std::_Rb_tree_key_compare.25", %"struct.std::_Rb_tree_header" }
%"struct.std::_Rb_tree_key_compare.25" = type { %"struct.std::less.26" }
%"struct.std::less.26" = type { i8 }
%"class.std::unordered_map" = type { %"class.std::_Hashtable" }
%"class.std::_Hashtable" = type { ptr, i64, %"struct.std::__detail::_Hash_node_base", i64, %"struct.std::__detail::_Prime_rehash_policy", ptr }
%"struct.std::__detail::_Hash_node_base" = type { ptr }
%"struct.std::__detail::_Prime_rehash_policy" = type { float, i64 }
%"class.std::vector.15" = type { %"struct.std::_Vector_base.16" }
%"struct.std::_Vector_base.16" = type { %"struct.std::_Vector_base<std::unique_ptr<cmGeneratorTarget>, std::allocator<std::unique_ptr<cmGeneratorTarget>>>::_Vector_impl" }
%"struct.std::_Vector_base<std::unique_ptr<cmGeneratorTarget>, std::allocator<std::unique_ptr<cmGeneratorTarget>>>::_Vector_impl" = type { %"struct.std::_Vector_base<std::unique_ptr<cmGeneratorTarget>, std::allocator<std::unique_ptr<cmGeneratorTarget>>>::_Vector_impl_data" }
%"struct.std::_Vector_base<std::unique_ptr<cmGeneratorTarget>, std::allocator<std::unique_ptr<cmGeneratorTarget>>>::_Vector_impl_data" = type { ptr, ptr, ptr }
%"class.std::map" = type { %"class.std::_Rb_tree" }
%"class.std::_Rb_tree" = type { %"struct.std::_Rb_tree<std::__cxx11::basic_string<char>, std::pair<const std::__cxx11::basic_string<char>, std::__cxx11::basic_string<char>>, std::_Select1st<std::pair<const std::__cxx11::basic_string<char>, std::__cxx11::basic_string<char>>>, std::less<std::__cxx11::basic_string<char>>>::_Rb_tree_impl" }
%"struct.std::_Rb_tree<std::__cxx11::basic_string<char>, std::pair<const std::__cxx11::basic_string<char>, std::__cxx11::basic_string<char>>, std::_Select1st<std::pair<const std::__cxx11::basic_string<char>, std::__cxx11::basic_string<char>>>, std::less<std::__cxx11::basic_string<char>>>::_Rb_tree_impl" = type { %"struct.std::_Rb_tree_key_compare", %"struct.std::_Rb_tree_header" }
%"class.std::unordered_map.28" = type { %"class.std::_Hashtable.29" }
%"class.std::_Hashtable.29" = type { ptr, i64, %"struct.std::__detail::_Hash_node_base", i64, %"struct.std::__detail::_Prime_rehash_policy", ptr }
%"class.std::unordered_map.42" = type { %"class.std::_Hashtable.43" }
%"class.std::_Hashtable.43" = type { ptr, i64, %"struct.std::__detail::_Hash_node_base", i64, %"struct.std::__detail::_Prime_rehash_policy", ptr }

; Function Attrs: mustprogress nounwind uwtable
define linkonce_odr dso_local noundef ptr @_ZN16cmLocalGenerator18GetGlobalGeneratorEv(ptr noundef nonnull align 8 dereferenceable(824) %0) #5 comdat align 2 {
  %2 = alloca ptr, align 8
  store ptr %0, ptr %2, align 8
  %3 = load ptr, ptr %2, align 8
  %4 = getelementptr inbounds %class.cmLocalGenerator, ptr %3, i32 0, i32 3
  %5 = load ptr, ptr %4, align 8
  ret ptr %5
}

; Function Attrs: mustprogress uwtable
define dso_local noundef zeroext i1 @_ZN30cmInstallCxxModuleBmiGenerator7ComputeEP16cmLocalGenerator(ptr noundef nonnull align 8 dereferenceable(281) %0, ptr noundef %1) unnamed_addr #4 align 2 {
  %3 = alloca ptr, align 8
  %4 = alloca ptr, align 8
  store ptr %0, ptr %3, align 8
  store ptr %1, ptr %4, align 8
  %5 = load ptr, ptr %3, align 8
  %6 = load ptr, ptr %4, align 8
  %7 = getelementptr inbounds %class.cmInstallCxxModuleBmiGenerator, ptr %5, i32 0, i32 3
  store ptr %6, ptr %7, align 8
  %8 = load ptr, ptr %4, align 8
  %9 = getelementptr inbounds %class.cmInstallCxxModuleBmiGenerator, ptr %5, i32 0, i32 1
  %10 = call noundef ptr @_ZNK16cmLocalGenerator32FindLocalNonAliasGeneratorTargetERKNSt7__cxx1112basic_stringIcSt11char_traitsIcESaIcEEE(ptr noundef nonnull align 8 dereferenceable(824) %8, ptr noundef nonnull align 8 dereferenceable(32) %9)
  %11 = getelementptr inbounds %class.cmInstallCxxModuleBmiGenerator, ptr %5, i32 0, i32 2
  store ptr %10, ptr %11, align 8
  %12 = getelementptr inbounds %class.cmInstallCxxModuleBmiGenerator, ptr %5, i32 0, i32 2
  %13 = load ptr, ptr %12, align 8
  %14 = icmp ne ptr %13, null
  br i1 %14, label %21, label %15

15:                                               ; preds = %2
  %16 = load ptr, ptr %4, align 8
  %17 = call noundef ptr @_ZN16cmLocalGenerator18GetGlobalGeneratorEv(ptr noundef nonnull align 8 dereferenceable(824) %16)
  %18 = getelementptr inbounds %class.cmInstallCxxModuleBmiGenerator, ptr %5, i32 0, i32 1
  %19 = call noundef ptr @_ZNK17cmGlobalGenerator19FindGeneratorTargetERKNSt7__cxx1112basic_stringIcSt11char_traitsIcESaIcEEE(ptr noundef nonnull align 8 dereferenceable(1778) %17, ptr noundef nonnull align 8 dereferenceable(32) %18)
  %20 = getelementptr inbounds %class.cmInstallCxxModuleBmiGenerator, ptr %5, i32 0, i32 2
  store ptr %19, ptr %20, align 8
  br label %21

21:                                               ; preds = %15, %2
  ret i1 true
}