; Function Attrs: mustprogress uwtable
define dso_local noundef zeroext i1 @_ZN30cmInstallCxxModuleBmiGenerator7ComputeEP16cmLocalGenerator(ptr noundef nonnull align 8 dereferenceable(281) %0, ptr noundef nonnull %1) unnamed_addr #3 align 2 {
  %3 = getelementptr inbounds i8, ptr %0, i64 240
  store ptr %1, ptr %3, align 8
  %4 = getelementptr inbounds i8, ptr %0, i64 200
  %5 = tail call noundef ptr @_ZNK16cmLocalGenerator32FindLocalNonAliasGeneratorTargetERKNSt7__cxx1112basic_stringIcSt11char_traitsIcESaIcEEE(ptr noundef nonnull align 8 dereferenceable(824) %1, ptr noundef nonnull align 8 dereferenceable(32) %4)
  %6 = getelementptr inbounds i8, ptr %0, i64 232
  store ptr %5, ptr %6, align 8
  %.not = icmp eq ptr %5, null
  br i1 %.not, label %7, label %11

7:                                                ; preds = %2
  %8 = getelementptr inbounds i8, ptr %1, i64 136
  %9 = load ptr, ptr %8, align 8
  %10 = tail call noundef ptr @_ZNK17cmGlobalGenerator19FindGeneratorTargetERKNSt7__cxx1112basic_stringIcSt11char_traitsIcESaIcEEE(ptr noundef nonnull align 8 dereferenceable(1778) %9, ptr noundef nonnull align 8 dereferenceable(32) %4)
  store ptr %10, ptr %6, align 8
  br label %11

11:                                               ; preds = %7, %2
  ret i1 true
}